---
triple:          'arm64-apple-darwin'
binary-path:     "/Users/gyk/Desktop/Code/P_12243_蓝桥杯_2023_国研究生组_混乘数字"
relocations:
  - { offset: 0x16D35, size: 0x8, addend: 0x0, symName: __ZStL8__ioinit, symObjAddr: 0x73E6E, symBinAddr: 0x10000C000, symSize: 0x0 }
  - { offset: 0x16E32, size: 0x8, addend: 0x0, symName: _ans, symObjAddr: 0x73E70, symBinAddr: 0x10000C008, symSize: 0x0 }
  - { offset: 0x16F7E, size: 0x8, addend: 0x0, symName: __GLOBAL__sub_I_P_12243___________2023_____________________________.cpp, symObjAddr: 0x2C84, symBinAddr: 0x100003264, symSize: 0x14 }
  - { offset: 0x16F95, size: 0x8, addend: 0x0, symName: __Z41__static_initialization_and_destruction_0v, symObjAddr: 0x2C48, symBinAddr: 0x100003228, symSize: 0x3C }
  - { offset: 0x16FB2, size: 0x8, addend: 0x0, symName: __ZSt9__advanceIPclEvRT_T0_St26random_access_iterator_tag, symObjAddr: 0x2AB4, symBinAddr: 0x1000031F4, symSize: 0x34 }
  - { offset: 0x1708D, size: 0x8, addend: 0x0, symName: __ZNK9__gnu_cxx5__ops14_Iter_less_valclINS_17__normal_iteratorIPcNSt7__cxx1112basic_stringIcSt11char_traitsIcESaIcEEEEEcEEbT_RT0_, symObjAddr: 0x2A80, symBinAddr: 0x1000031C0, symSize: 0x34 }
  - { offset: 0x17102, size: 0x8, addend: 0x0, symName: __ZSt23__copy_move_backward_a2ILb1EPcS0_ET1_T0_S2_S1_, symObjAddr: 0x299C, symBinAddr: 0x1000030DC, symSize: 0xE4 }
  - { offset: 0x172BB, size: 0x8, addend: 0x0, symName: __ZSt11__push_heapIN9__gnu_cxx17__normal_iteratorIPcNSt7__cxx1112basic_stringIcSt11char_traitsIcESaIcEEEEElcNS0_5__ops14_Iter_less_valEEvT_T0_SD_T1_RT2_, symObjAddr: 0x2810, symBinAddr: 0x100002F50, symSize: 0x18C }
  - { offset: 0x17540, size: 0x8, addend: 0x0, symName: __ZSt12__niter_wrapIN9__gnu_cxx17__normal_iteratorIPcNSt7__cxx1112basic_stringIcSt11char_traitsIcESaIcEEEEES2_ET_SA_T0_, symObjAddr: 0x27B8, symBinAddr: 0x100002EF8, symSize: 0x58 }
  - { offset: 0x176B6, size: 0x8, addend: 0x0, symName: __ZSt4swapIcENSt9enable_ifIXsrSt6__and_IJSt6__not_ISt15__is_tuple_likeIT_EESt21is_move_constructibleIS4_ESt18is_move_assignableIS4_EEE5valueEvE4typeERS4_SE_, symObjAddr: 0x2764, symBinAddr: 0x100002EA4, symSize: 0x54 }
  - { offset: 0x1776B, size: 0x8, addend: 0x0, symName: __ZSt13__adjust_heapIN9__gnu_cxx17__normal_iteratorIPcNSt7__cxx1112basic_stringIcSt11char_traitsIcESaIcEEEEElcNS0_5__ops15_Iter_less_iterEEvT_T0_SD_T1_T2_, symObjAddr: 0x24F0, symBinAddr: 0x100002C30, symSize: 0x274 }
  - { offset: 0x17B00, size: 0x8, addend: 0x0, symName: __ZNK9__gnu_cxx5__ops14_Val_less_iterclIcNS_17__normal_iteratorIPcNSt7__cxx1112basic_stringIcSt11char_traitsIcESaIcEEEEEEEbRT_T0_, symObjAddr: 0x24BC, symBinAddr: 0x100002BFC, symSize: 0x34 }
  - { offset: 0x17BBF, size: 0x8, addend: 0x0, symName: __ZSt12__miter_baseIN9__gnu_cxx17__normal_iteratorIPcNSt7__cxx1112basic_stringIcSt11char_traitsIcESaIcEEEEEET_SA_, symObjAddr: 0x24A8, symBinAddr: 0x100002BE8, symSize: 0x14 }
  - { offset: 0x17BF1, size: 0x8, addend: 0x0, symName: __ZSt9iter_swapIN9__gnu_cxx17__normal_iteratorIPcNSt7__cxx1112basic_stringIcSt11char_traitsIcESaIcEEEEES9_EvT_T0_, symObjAddr: 0x2480, symBinAddr: 0x100002BC0, symSize: 0x28 }
  - { offset: 0x17C8F, size: 0x8, addend: 0x0, symName: __ZSt10__pop_heapIN9__gnu_cxx17__normal_iteratorIPcNSt7__cxx1112basic_stringIcSt11char_traitsIcESaIcEEEEENS0_5__ops15_Iter_less_iterEEvT_SC_SC_RT0_, symObjAddr: 0x23F0, symBinAddr: 0x100002B30, symSize: 0x90 }
  - { offset: 0x17E96, size: 0x8, addend: 0x0, symName: __ZSt11__make_heapIN9__gnu_cxx17__normal_iteratorIPcNSt7__cxx1112basic_stringIcSt11char_traitsIcESaIcEEEEENS0_5__ops15_Iter_less_iterEEvT_SC_RT0_, symObjAddr: 0x22C8, symBinAddr: 0x100002A08, symSize: 0x128 }
  - { offset: 0x1811C, size: 0x8, addend: 0x0, symName: __ZNSt15__new_allocatorIcE8allocateEmPKv, symObjAddr: 0x2264, symBinAddr: 0x1000029A4, symSize: 0x64 }
  - { offset: 0x1818B, size: 0x8, addend: 0x0, symName: __ZSt25__unguarded_linear_insertIN9__gnu_cxx17__normal_iteratorIPcNSt7__cxx1112basic_stringIcSt11char_traitsIcESaIcEEEEENS0_5__ops14_Val_less_iterEEvT_T0_, symObjAddr: 0x21C0, symBinAddr: 0x100002900, symSize: 0xA4 }
  - { offset: 0x1839A, size: 0x8, addend: 0x0, symName: __ZNK9__gnu_cxx5__ops15_Iter_less_iterclINS_17__normal_iteratorIPcNSt7__cxx1112basic_stringIcSt11char_traitsIcESaIcEEEEESB_EEbT_T0_, symObjAddr: 0x218C, symBinAddr: 0x1000028CC, symSize: 0x34 }
  - { offset: 0x18445, size: 0x8, addend: 0x0, symName: __ZSt21__unguarded_partitionIN9__gnu_cxx17__normal_iteratorIPcNSt7__cxx1112basic_stringIcSt11char_traitsIcESaIcEEEEENS0_5__ops15_Iter_less_iterEET_SC_SC_SC_T0_, symObjAddr: 0x2098, symBinAddr: 0x1000027D8, symSize: 0xF4 }
  - { offset: 0x185A6, size: 0x8, addend: 0x0, symName: __ZSt22__move_median_to_firstIN9__gnu_cxx17__normal_iteratorIPcNSt7__cxx1112basic_stringIcSt11char_traitsIcESaIcEEEEENS0_5__ops15_Iter_less_iterEEvT_SC_SC_SC_T0_, symObjAddr: 0x1F88, symBinAddr: 0x1000026C8, symSize: 0x110 }
  - { offset: 0x1863E, size: 0x8, addend: 0x0, symName: __ZSt11__sort_heapIN9__gnu_cxx17__normal_iteratorIPcNSt7__cxx1112basic_stringIcSt11char_traitsIcESaIcEEEEENS0_5__ops15_Iter_less_iterEEvT_SC_RT0_, symObjAddr: 0x1F00, symBinAddr: 0x100002640, symSize: 0x88 }
  - { offset: 0x1872B, size: 0x8, addend: 0x0, symName: __ZSt13__heap_selectIN9__gnu_cxx17__normal_iteratorIPcNSt7__cxx1112basic_stringIcSt11char_traitsIcESaIcEEEEENS0_5__ops15_Iter_less_iterEEvT_SC_SC_T0_, symObjAddr: 0x1E3C, symBinAddr: 0x10000257C, symSize: 0xC4 }
  - { offset: 0x1890F, size: 0x8, addend: 0x0, symName: __ZNSt7__cxx1112basic_stringIcSt11char_traitsIcESaIcEE9_M_appendEPKcm, symObjAddr: 0x1D74, symBinAddr: 0x1000024B4, symSize: 0xC8 }
  - { offset: 0x18967, size: 0x8, addend: 0x0, symName: __ZSt26__unguarded_insertion_sortIN9__gnu_cxx17__normal_iteratorIPcNSt7__cxx1112basic_stringIcSt11char_traitsIcESaIcEEEEENS0_5__ops15_Iter_less_iterEEvT_SC_T0_, symObjAddr: 0x1CE0, symBinAddr: 0x100002420, symSize: 0x94 }
  - { offset: 0x18A78, size: 0x8, addend: 0x0, symName: __ZSt16__insertion_sortIN9__gnu_cxx17__normal_iteratorIPcNSt7__cxx1112basic_stringIcSt11char_traitsIcESaIcEEEEENS0_5__ops15_Iter_less_iterEEvT_SC_T0_, symObjAddr: 0x1ADC, symBinAddr: 0x10000221C, symSize: 0x204 }
  - { offset: 0x18F32, size: 0x8, addend: 0x0, symName: __ZSt27__unguarded_partition_pivotIN9__gnu_cxx17__normal_iteratorIPcNSt7__cxx1112basic_stringIcSt11char_traitsIcESaIcEEEEENS0_5__ops15_Iter_less_iterEET_SC_SC_T0_, symObjAddr: 0x19B8, symBinAddr: 0x1000020F8, symSize: 0x124 }
  - { offset: 0x19157, size: 0x8, addend: 0x0, symName: __ZSt14__partial_sortIN9__gnu_cxx17__normal_iteratorIPcNSt7__cxx1112basic_stringIcSt11char_traitsIcESaIcEEEEENS0_5__ops15_Iter_less_iterEEvT_SC_SC_T0_, symObjAddr: 0x196C, symBinAddr: 0x1000020AC, symSize: 0x4C }
  - { offset: 0x191CE, size: 0x8, addend: 0x0, symName: __ZNSt7__cxx1112basic_stringIcSt11char_traitsIcESaIcEE9_M_mutateEmmPKcm, symObjAddr: 0x1814, symBinAddr: 0x100001F54, symSize: 0x158 }
  - { offset: 0x19270, size: 0x8, addend: 0x0, symName: __ZNKSt7__cxx1112basic_stringIcSt11char_traitsIcESaIcEE15_M_check_lengthEmmPKc, symObjAddr: 0x17A0, symBinAddr: 0x100001EE0, symSize: 0x74 }
  - { offset: 0x192CD, size: 0x8, addend: 0x0, symName: __ZNSt15__new_allocatorIcE10deallocateEPcm, symObjAddr: 0x1778, symBinAddr: 0x100001EB8, symSize: 0x28 }
  - { offset: 0x19310, size: 0x8, addend: 0x0, symName: __ZSt13__countl_zeroImEiT_, symObjAddr: 0x1758, symBinAddr: 0x100001E98, symSize: 0x20 }
  - { offset: 0x1938C, size: 0x8, addend: 0x0, symName: __ZNSt19__ptr_traits_ptr_toIPKcS0_Lb0EE10pointer_toERS0_, symObjAddr: 0x1730, symBinAddr: 0x100001E70, symSize: 0x28 }
  - { offset: 0x193F9, size: 0x8, addend: 0x0, symName: __ZNSt7__cxx1112basic_stringIcSt11char_traitsIcESaIcEE11_S_allocateERS3_m, symObjAddr: 0x16EC, symBinAddr: 0x100001E2C, symSize: 0x44 }
  - { offset: 0x194A7, size: 0x8, addend: 0x0, symName: __ZNSt7__cxx1112basic_stringIcSt11char_traitsIcESaIcEE6appendEPKcm, symObjAddr: 0x16A8, symBinAddr: 0x100001DE8, symSize: 0x44 }
  - { offset: 0x194EE, size: 0x8, addend: 0x0, symName: __ZSt22__final_insertion_sortIN9__gnu_cxx17__normal_iteratorIPcNSt7__cxx1112basic_stringIcSt11char_traitsIcESaIcEEEEENS0_5__ops15_Iter_less_iterEEvT_SC_T0_, symObjAddr: 0x15C4, symBinAddr: 0x100001D04, symSize: 0xE4 }
  - { offset: 0x1965F, size: 0x8, addend: 0x0, symName: __ZSt16__introsort_loopIN9__gnu_cxx17__normal_iteratorIPcNSt7__cxx1112basic_stringIcSt11char_traitsIcESaIcEEEEElNS0_5__ops15_Iter_less_iterEEvT_SC_T0_T1_, symObjAddr: 0x14F4, symBinAddr: 0x100001C34, symSize: 0xD0 }
  - { offset: 0x19769, size: 0x8, addend: 0x0, symName: __ZSt4__lgIlET_S0_, symObjAddr: 0x14D0, symBinAddr: 0x100001C10, symSize: 0x24 }
  - { offset: 0x197DD, size: 0x8, addend: 0x0, symName: __ZSt11__bit_widthImEiT_, symObjAddr: 0x14A0, symBinAddr: 0x100001BE0, symSize: 0x30 }
  - { offset: 0x19825, size: 0x8, addend: 0x0, symName: __ZNKSt7__cxx1112basic_stringIcSt11char_traitsIcESaIcEE8max_sizeEv, symObjAddr: 0x1444, symBinAddr: 0x100001B84, symSize: 0x5C }
  - { offset: 0x198F1, size: 0x8, addend: 0x0, symName: __ZNKSt7__cxx1112basic_stringIcSt11char_traitsIcESaIcEE13_M_local_dataEv, symObjAddr: 0x1424, symBinAddr: 0x100001B64, symSize: 0x20 }
  - { offset: 0x1991E, size: 0x8, addend: 0x0, symName: __ZNSt7__cxx1112basic_stringIcSt11char_traitsIcESaIcEE9_M_createERmm, symObjAddr: 0x1330, symBinAddr: 0x100001A70, symSize: 0xF4 }
  - { offset: 0x19966, size: 0x8, addend: 0x0, symName: __ZNKSt7__cxx1112basic_stringIcSt11char_traitsIcESaIcEE8capacityEv, symObjAddr: 0x12AC, symBinAddr: 0x1000019EC, symSize: 0x84 }
  - { offset: 0x199BE, size: 0x8, addend: 0x0, symName: __ZNSt19__ptr_traits_ptr_toIPccLb0EE10pointer_toERc, symObjAddr: 0x1284, symBinAddr: 0x1000019C4, symSize: 0x28 }
  - { offset: 0x19A31, size: 0x8, addend: 0x0, symName: __ZSt12__str_concatINSt7__cxx1112basic_stringIcSt11char_traitsIcESaIcEEEET_PKNS6_10value_typeENS6_9size_typeES9_SA_RKNS6_14allocator_typeE, symObjAddr: 0x11A4, symBinAddr: 0x1000018E4, symSize: 0xE0 }
  - { offset: 0x19B83, size: 0x8, addend: 0x0, symName: __ZNKSt7__cxx1112basic_stringIcSt11char_traitsIcESaIcEE13get_allocatorEv, symObjAddr: 0x1154, symBinAddr: 0x100001894, symSize: 0x50 }
  - { offset: 0x19C01, size: 0x8, addend: 0x0, symName: __ZSt6__sortIN9__gnu_cxx17__normal_iteratorIPcNSt7__cxx1112basic_stringIcSt11char_traitsIcESaIcEEEEENS0_5__ops15_Iter_less_iterEEvT_SC_T0_, symObjAddr: 0x10A4, symBinAddr: 0x1000017E4, symSize: 0xB0 }
  - { offset: 0x19E07, size: 0x8, addend: 0x0, symName: __ZNSt7__cxx1112basic_stringIcSt11char_traitsIcESaIcEEC1ERKS3_, symObjAddr: 0x104C, symBinAddr: 0x10000178C, symSize: 0x58 }
  - { offset: 0x19E55, size: 0x8, addend: 0x0, symName: __ZNSt7__cxx1112basic_stringIcSt11char_traitsIcESaIcEE7_S_copyEPcPKcm, symObjAddr: 0x1000, symBinAddr: 0x100001740, symSize: 0x4C }
  - { offset: 0x19EA5, size: 0x8, addend: 0x0, symName: __ZNSt7__cxx1112basic_stringIcSt11char_traitsIcESaIcEE10_M_destroyEm, symObjAddr: 0xF9C, symBinAddr: 0x1000016DC, symSize: 0x64 }
  - { offset: 0x19F29, size: 0x8, addend: 0x0, symName: __ZNKSt7__cxx1112basic_stringIcSt11char_traitsIcESaIcEE16_M_get_allocatorEv, symObjAddr: 0xF88, symBinAddr: 0x1000016C8, symSize: 0x14 }
  - { offset: 0x19F85, size: 0x8, addend: 0x0, symName: __ZNSt7__cxx1112basic_stringIcSt11char_traitsIcESaIcEE12_Alloc_hiderC1EPcRKS3_, symObjAddr: 0xF38, symBinAddr: 0x100001678, symSize: 0x50 }
  - { offset: 0x1A02F, size: 0x8, addend: 0x0, symName: __ZNSt15__new_allocatorIcED2Ev, symObjAddr: 0xF24, symBinAddr: 0x100001664, symSize: 0x14 }
  - { offset: 0x1A06B, size: 0x8, addend: 0x0, symName: __ZNKSt7__cxx1112basic_stringIcSt11char_traitsIcESaIcEE4sizeEv, symObjAddr: 0xED4, symBinAddr: 0x100001614, symSize: 0x50 }
  - { offset: 0x1A0A6, size: 0x8, addend: 0x0, symName: __ZNKSt7__cxx1112basic_stringIcSt11char_traitsIcESaIcEE4dataEv, symObjAddr: 0xEB8, symBinAddr: 0x1000015F8, symSize: 0x1C }
  - { offset: 0x1A0F2, size: 0x8, addend: 0x0, symName: __ZNSt7__cxx1112basic_stringIcSt11char_traitsIcESaIcEE9_M_lengthEm, symObjAddr: 0xE94, symBinAddr: 0x1000015D4, symSize: 0x24 }
  - { offset: 0x1A12B, size: 0x8, addend: 0x0, symName: __ZNSt7__cxx1112basic_stringIcSt11char_traitsIcESaIcEE11_M_capacityEm, symObjAddr: 0xE70, symBinAddr: 0x1000015B0, symSize: 0x24 }
  - { offset: 0x1A166, size: 0x8, addend: 0x0, symName: __ZNSt7__cxx1112basic_stringIcSt11char_traitsIcESaIcEE7_M_dataEPc, symObjAddr: 0xE4C, symBinAddr: 0x10000158C, symSize: 0x24 }
  - { offset: 0x1A19F, size: 0x8, addend: 0x0, symName: __ZNKSt7__cxx1112basic_stringIcSt11char_traitsIcESaIcEE6lengthEv, symObjAddr: 0xE30, symBinAddr: 0x100001570, symSize: 0x1C }
  - { offset: 0x1A1C9, size: 0x8, addend: 0x0, symName: __ZNKSt7__cxx1112basic_stringIcSt11char_traitsIcESaIcEE11_M_is_localEv, symObjAddr: 0xDC8, symBinAddr: 0x100001508, symSize: 0x68 }
  - { offset: 0x1A215, size: 0x8, addend: 0x0, symName: __ZNSt7__cxx1112basic_stringIcSt11char_traitsIcESaIcEE16_M_get_allocatorEv, symObjAddr: 0xDB4, symBinAddr: 0x1000014F4, symSize: 0x14 }
  - { offset: 0x1A243, size: 0x8, addend: 0x0, symName: __ZNSt7__cxx1112basic_stringIcSt11char_traitsIcESaIcEE7reserveEm, symObjAddr: 0xD0C, symBinAddr: 0x10000144C, symSize: 0xA8 }
  - { offset: 0x1A2A0, size: 0x8, addend: 0x0, symName: __ZNSt7__cxx1112basic_stringIcSt11char_traitsIcESaIcEE10_M_disposeEv, symObjAddr: 0xCC4, symBinAddr: 0x100001404, symSize: 0x48 }
  - { offset: 0x1A2CA, size: 0x8, addend: 0x0, symName: __ZNSt7__cxx1112basic_stringIcSt11char_traitsIcESaIcEE13_M_set_lengthEm, symObjAddr: 0xC7C, symBinAddr: 0x1000013BC, symSize: 0x48 }
  - { offset: 0x1A34D, size: 0x8, addend: 0x0, symName: __ZNSt7__cxx1112basic_stringIcSt11char_traitsIcESaIcEE12_Alloc_hiderC1EPcOS3_, symObjAddr: 0xC24, symBinAddr: 0x100001364, symSize: 0x58 }
  - { offset: 0x1A401, size: 0x8, addend: 0x0, symName: __ZNSt7__cxx1112basic_stringIcSt11char_traitsIcESaIcEE13_M_local_dataEv, symObjAddr: 0xC04, symBinAddr: 0x100001344, symSize: 0x20 }
  - { offset: 0x1A42B, size: 0x8, addend: 0x0, symName: __ZNKSt7__cxx1112basic_stringIcSt11char_traitsIcESaIcEE7_M_dataEv, symObjAddr: 0xBEC, symBinAddr: 0x10000132C, symSize: 0x18 }
  - { offset: 0x1A450, size: 0x8, addend: 0x0, symName: __ZSteqIcSt11char_traitsIcESaIcEEbRKNSt7__cxx1112basic_stringIT_T0_T1_EESA_, symObjAddr: 0xB6C, symBinAddr: 0x1000012AC, symSize: 0x80 }
  - { offset: 0x1A4A5, size: 0x8, addend: 0x0, symName: __ZStplIcSt11char_traitsIcESaIcEENSt7__cxx1112basic_stringIT_T0_T1_EERKS8_SA_, symObjAddr: 0xAA8, symBinAddr: 0x1000011E8, symSize: 0xC4 }
  - { offset: 0x1A53C, size: 0x8, addend: 0x0, symName: __ZSt4sortIN9__gnu_cxx17__normal_iteratorIPcNSt7__cxx1112basic_stringIcSt11char_traitsIcESaIcEEEEEEvT_SA_, symObjAddr: 0xA70, symBinAddr: 0x1000011B0, symSize: 0x38 }
  - { offset: 0x1A584, size: 0x8, addend: 0x0, symName: __ZNSt7__cxx1112basic_stringIcSt11char_traitsIcESaIcEE3endEv, symObjAddr: 0xA28, symBinAddr: 0x100001168, symSize: 0x48 }
  - { offset: 0x1A5D5, size: 0x8, addend: 0x0, symName: __ZNSt7__cxx1112basic_stringIcSt11char_traitsIcESaIcEE5beginEv, symObjAddr: 0x9F8, symBinAddr: 0x100001138, symSize: 0x30 }
  - { offset: 0x1A652, size: 0x8, addend: 0x0, symName: __ZNSt7__cxx1112basic_stringIcSt11char_traitsIcESaIcEE22__resize_and_overwriteIZNS_9to_stringExEUlPcmE_EEvmT_, symObjAddr: 0x980, symBinAddr: 0x1000010C0, symSize: 0x78 }
  - { offset: 0x1A740, size: 0x8, addend: 0x0, symName: __ZZNSt7__cxx1112basic_stringIcSt11char_traitsIcESaIcEE22__resize_and_overwriteIZNS_9to_stringExEUlPcmE_EEvmT_EN11_TerminatorD1Ev, symObjAddr: 0x94C, symBinAddr: 0x10000108C, symSize: 0x34 }
  - { offset: 0x1A7A6, size: 0x8, addend: 0x0, symName: __ZNSt8__detail18__to_chars_10_implIyEEvPcjT_, symObjAddr: 0x780, symBinAddr: 0x100000EC0, symSize: 0x1CC }
  - { offset: 0x1A889, size: 0x8, addend: 0x0, symName: __ZNSt7__cxx1112basic_stringIcSt11char_traitsIcESaIcEED1Ev, symObjAddr: 0x758, symBinAddr: 0x100000E98, symSize: 0x28 }
  - { offset: 0x1A8C9, size: 0x8, addend: 0x0, symName: __ZNSt7__cxx1112basic_stringIcSt11char_traitsIcESaIcEEC1Ev, symObjAddr: 0x6E4, symBinAddr: 0x100000E24, symSize: 0x74 }
  - { offset: 0x1A995, size: 0x8, addend: 0x0, symName: __ZNSt7__cxx1112basic_stringIcSt11char_traitsIcESaIcEE12_Alloc_hiderD1Ev, symObjAddr: 0x6B8, symBinAddr: 0x100000DF8, symSize: 0x2C }
  - { offset: 0x1A9DE, size: 0x8, addend: 0x0, symName: __ZNKSt7__cxx1112basic_stringIcSt11char_traitsIcESaIcEE5c_strEv, symObjAddr: 0x69C, symBinAddr: 0x100000DDC, symSize: 0x1C }
  - { offset: 0x1AA0B, size: 0x8, addend: 0x0, symName: _main, symObjAddr: 0x5E0, symBinAddr: 0x100000D20, symSize: 0xBC }
  - { offset: 0x1AA52, size: 0x8, addend: 0x0, symName: __Z5judgex, symObjAddr: 0x414, symBinAddr: 0x100000B54, symSize: 0x1CC }
  - { offset: 0x1AAEB, size: 0x8, addend: 0x0, symName: __ZSt3minImERKT_S2_S2_, symObjAddr: 0x3DC, symBinAddr: 0x100000B1C, symSize: 0x38 }
  - { offset: 0x1AB2A, size: 0x8, addend: 0x0, symName: __ZNSt8__detail14__to_chars_lenIyEEjT_i, symObjAddr: 0x300, symBinAddr: 0x100000A40, symSize: 0xDC }
  - { offset: 0x1ABA9, size: 0x8, addend: 0x0, symName: __ZNSt7__cxx119to_stringEx, symObjAddr: 0x238, symBinAddr: 0x100000978, symSize: 0xC8 }
  - { offset: 0x1AC3C, size: 0x8, addend: 0x0, symName: __ZZNSt7__cxx119to_stringExENKUlPcmE_clES0_m, symObjAddr: 0x1DC, symBinAddr: 0x10000091C, symSize: 0x5C }
  - { offset: 0x1ACE7, size: 0x8, addend: 0x0, symName: __ZNSt11char_traitsIcE4copyEPcPKcm, symObjAddr: 0x188, symBinAddr: 0x1000008C8, symSize: 0x54 }
  - { offset: 0x1AD32, size: 0x8, addend: 0x0, symName: __ZNSt11char_traitsIcE7compareEPKcS2_m, symObjAddr: 0x98, symBinAddr: 0x1000007D8, symSize: 0xF0 }
  - { offset: 0x1ADBB, size: 0x8, addend: 0x0, symName: __ZNSt11char_traitsIcE2ltERKcS2_, symObjAddr: 0x60, symBinAddr: 0x1000007A0, symSize: 0x38 }
  - { offset: 0x1ADF5, size: 0x8, addend: 0x0, symName: __ZNSt11char_traitsIcE6assignERcRKc, symObjAddr: 0x38, symBinAddr: 0x100000778, symSize: 0x28 }
  - { offset: 0x1AE2F, size: 0x8, addend: 0x0, symName: __ZN9__gnu_cxx5__ops15__val_comp_iterENS0_15_Iter_less_iterE, symObjAddr: 0x20, symBinAddr: 0x100000760, symSize: 0x18 }
  - { offset: 0x1AE73, size: 0x8, addend: 0x0, symName: __ZN9__gnu_cxx5__ops14_Iter_less_valC1ENS0_15_Iter_less_iterE, symObjAddr: 0x8, symBinAddr: 0x100000748, symSize: 0x18 }
  - { offset: 0x1AE9E, size: 0x8, addend: 0x0, symName: __ZN9__gnu_cxx5__ops16__iter_less_iterEv, symObjAddr: 0x0, symBinAddr: 0x100000740, symSize: 0x8 }
...
